target datalayout = "e-m:e-p270:32:32-p271:32:32-p272:64:64-i64:64-i128:128-f80:128-n8:16:32:64-S128"
target triple = "x86_64-pc-linux-gnu"

%struct._lv_image_t = type { %struct._lv_obj_t, ptr, ptr, %struct.lv_point_t, i32, i32, i32, i32, i32, %struct.lv_point_t, i16 }
%struct._lv_obj_t = type { ptr, ptr, ptr, ptr, ptr, %struct.lv_area_t, i32, i16, i16 }
%struct.lv_area_t = type { i32, i32, i32, i32 }
%struct.lv_point_t = type { i32, i32 }

; Function Attrs: nounwind uwtable
define void @lv_image_get_pivot(ptr noundef %0, ptr noundef %1) #0 {
  %3 = alloca ptr, align 8
  %4 = alloca ptr, align 8
  %5 = alloca ptr, align 8
  store ptr %0, ptr %3, align 8, !tbaa !8
  store ptr %1, ptr %4, align 8, !tbaa !45
  br label %6

6:                                                ; preds = %2
  %7 = load ptr, ptr %3, align 8, !tbaa !8
  %8 = icmp ne ptr %7, null
  br i1 %8, label %13, label %9

9:                                                ; preds = %6
  br label %10

10:                                               ; preds = %9
  br label %11

11:                                               ; preds = %10
  br label %12

12:                                               ; preds = %11, %12
  br label %12

13:                                               ; preds = %6
  br label %14

14:                                               ; preds = %13
  call void @llvm.lifetime.start.p0(i64 8, ptr %5) #5
  %15 = load ptr, ptr %3, align 8, !tbaa !8
  store ptr %15, ptr %5, align 8, !tbaa !10
  %16 = load ptr, ptr %5, align 8, !tbaa !10
  %17 = getelementptr inbounds nuw %struct._lv_image_t, ptr %16, i32 0, i32 9
  %18 = getelementptr inbounds nuw %struct.lv_point_t, ptr %17, i32 0, i32 0
  %19 = load i32, ptr %18, align 4, !tbaa !37
  %20 = load ptr, ptr %5, align 8, !tbaa !10
  %21 = getelementptr inbounds nuw %struct._lv_image_t, ptr %20, i32 0, i32 4
  %22 = load i32, ptr %21, align 8, !tbaa !21
  %23 = call i32 @lv_pct_to_px(i32 noundef %19, i32 noundef %22)
  %24 = load ptr, ptr %4, align 8, !tbaa !45
  %25 = getelementptr inbounds nuw %struct.lv_point_t, ptr %24, i32 0, i32 0
  store i32 %23, ptr %25, align 4, !tbaa !46
  %26 = load ptr, ptr %5, align 8, !tbaa !10
  %27 = getelementptr inbounds nuw %struct._lv_image_t, ptr %26, i32 0, i32 9
  %28 = getelementptr inbounds nuw %struct.lv_point_t, ptr %27, i32 0, i32 1
  %29 = load i32, ptr %28, align 4, !tbaa !38
  %30 = load ptr, ptr %5, align 8, !tbaa !10
  %31 = getelementptr inbounds nuw %struct._lv_image_t, ptr %30, i32 0, i32 5
  %32 = load i32, ptr %31, align 4, !tbaa !22
  %33 = call i32 @lv_pct_to_px(i32 noundef %29, i32 noundef %32)
  %34 = load ptr, ptr %4, align 8, !tbaa !45
  %35 = getelementptr inbounds nuw %struct.lv_point_t, ptr %34, i32 0, i32 1
  store i32 %33, ptr %35, align 4, !tbaa !47
  call void @llvm.lifetime.end.p0(i64 8, ptr %5) #5
  ret void
}

; Function Attrs: nounwind uwtable
define void @lv_image_set_rotation(ptr noundef %0, i32 noundef %1) #0 {
  %3 = alloca ptr, align 8
  %4 = alloca i32, align 4
  %5 = alloca ptr, align 8
  %6 = alloca i32, align 4
  %7 = alloca i32, align 4
  %8 = alloca i32, align 4
  %9 = alloca %struct.lv_area_t, align 4
  %10 = alloca %struct.lv_point_t, align 4
  %11 = alloca ptr, align 8
  store ptr %0, ptr %3, align 8, !tbaa !8
  store i32 %1, ptr %4, align 4, !tbaa !28
  br label %12

12:                                               ; preds = %2
  %13 = load ptr, ptr %3, align 8, !tbaa !8
  %14 = icmp ne ptr %13, null
  br i1 %14, label %19, label %15

15:                                               ; preds = %12
  br label %16

16:                                               ; preds = %15
  br label %17

17:                                               ; preds = %16
  br label %18

18:                                               ; preds = %17, %18
  br label %18

19:                                               ; preds = %12
  br label %20

20:                                               ; preds = %19
  call void @llvm.lifetime.start.p0(i64 8, ptr %5) #5
  %21 = load ptr, ptr %3, align 8, !tbaa !8
  store ptr %21, ptr %5, align 8, !tbaa !10
  %22 = load ptr, ptr %5, align 8, !tbaa !10
  %23 = getelementptr inbounds nuw %struct._lv_image_t, ptr %22, i32 0, i32 10
  %24 = load i16, ptr %23, align 4
  %25 = lshr i16 %24, 8
  %26 = and i16 %25, 15
  %27 = zext i16 %26 to i32
  %28 = icmp sgt i32 %27, 10
  br i1 %28, label %29, label %30

29:                                               ; preds = %20
  store i32 0, ptr %4, align 4, !tbaa !28
  br label %45

30:                                               ; preds = %20
  br label %31

31:                                               ; preds = %34, %30
  %32 = load i32, ptr %4, align 4, !tbaa !28
  %33 = icmp sge i32 %32, 3600
  br i1 %33, label %34, label %37

34:                                               ; preds = %31
  %35 = load i32, ptr %4, align 4, !tbaa !28
  %36 = sub nsw i32 %35, 3600
  store i32 %36, ptr %4, align 4, !tbaa !28
  br label %31, !llvm.loop !55

37:                                               ; preds = %31
  br label %38

38:                                               ; preds = %41, %37
  %39 = load i32, ptr %4, align 4, !tbaa !28
  %40 = icmp slt i32 %39, 0
  br i1 %40, label %41, label %44

41:                                               ; preds = %38
  %42 = load i32, ptr %4, align 4, !tbaa !28
  %43 = add nsw i32 %42, 3600
  store i32 %43, ptr %4, align 4, !tbaa !28
  br label %38, !llvm.loop !57

44:                                               ; preds = %38
  br label %45

45:                                               ; preds = %44, %29
  %46 = load i32, ptr %4, align 4, !tbaa !28
  %47 = load ptr, ptr %5, align 8, !tbaa !10
  %48 = getelementptr inbounds nuw %struct._lv_image_t, ptr %47, i32 0, i32 6
  %49 = load i32, ptr %48, align 8, !tbaa !23
  %50 = icmp eq i32 %46, %49
  br i1 %50, label %51, label %52

51:                                               ; preds = %45
  store i32 1, ptr %6, align 4
  br label %151

52:                                               ; preds = %45
  %53 = load ptr, ptr %3, align 8, !tbaa !8
  call void @lv_obj_update_layout(ptr noundef %53)
  call void @llvm.lifetime.start.p0(i64 4, ptr %7) #5
  %54 = load ptr, ptr %3, align 8, !tbaa !8
  %55 = call i32 @lv_obj_get_width(ptr noundef %54)
  store i32 %55, ptr %7, align 4, !tbaa !28
  call void @llvm.lifetime.start.p0(i64 4, ptr %8) #5
  %56 = load ptr, ptr %3, align 8, !tbaa !8
  %57 = call i32 @lv_obj_get_height(ptr noundef %56)
  store i32 %57, ptr %8, align 4, !tbaa !28
  call void @llvm.lifetime.start.p0(i64 16, ptr %9) #5
  call void @llvm.lifetime.start.p0(i64 8, ptr %10) #5
  %58 = load ptr, ptr %3, align 8, !tbaa !8
  call void @lv_image_get_pivot(ptr noundef %58, ptr noundef %10)
  %59 = load i32, ptr %7, align 4, !tbaa !28
  %60 = load i32, ptr %8, align 4, !tbaa !28
  %61 = load ptr, ptr %5, align 8, !tbaa !10
  %62 = getelementptr inbounds nuw %struct._lv_image_t, ptr %61, i32 0, i32 6
  %63 = load i32, ptr %62, align 8, !tbaa !23
  %64 = load ptr, ptr %5, align 8, !tbaa !10
  %65 = getelementptr inbounds nuw %struct._lv_image_t, ptr %64, i32 0, i32 7
  %66 = load i32, ptr %65, align 4, !tbaa !24
  %67 = trunc i32 %66 to i16
  %68 = load ptr, ptr %5, align 8, !tbaa !10
  %69 = getelementptr inbounds nuw %struct._lv_image_t, ptr %68, i32 0, i32 8
  %70 = load i32, ptr %69, align 8, !tbaa !25
  %71 = trunc i32 %70 to i16
  call void @lv_image_buf_get_transformed_area(ptr noundef %9, i32 noundef %59, i32 noundef %60, i32 noundef %63, i16 noundef zeroext %67, i16 noundef zeroext %71, ptr noundef %10)
  %72 = load ptr, ptr %3, align 8, !tbaa !8
  %73 = getelementptr inbounds nuw %struct._lv_obj_t, ptr %72, i32 0, i32 5
  %74 = getelementptr inbounds nuw %struct.lv_area_t, ptr %73, i32 0, i32 0
  %75 = load i32, ptr %74, align 8, !tbaa !39
  %76 = getelementptr inbounds nuw %struct.lv_area_t, ptr %9, i32 0, i32 0
  %77 = load i32, ptr %76, align 4, !tbaa !31
  %78 = add nsw i32 %77, %75
  store i32 %78, ptr %76, align 4, !tbaa !31
  %79 = load ptr, ptr %3, align 8, !tbaa !8
  %80 = getelementptr inbounds nuw %struct._lv_obj_t, ptr %79, i32 0, i32 5
  %81 = getelementptr inbounds nuw %struct.lv_area_t, ptr %80, i32 0, i32 1
  %82 = load i32, ptr %81, align 4, !tbaa !40
  %83 = getelementptr inbounds nuw %struct.lv_area_t, ptr %9, i32 0, i32 1
  %84 = load i32, ptr %83, align 4, !tbaa !32
  %85 = add nsw i32 %84, %82
  store i32 %85, ptr %83, align 4, !tbaa !32
  %86 = load ptr, ptr %3, align 8, !tbaa !8
  %87 = getelementptr inbounds nuw %struct._lv_obj_t, ptr %86, i32 0, i32 5
  %88 = getelementptr inbounds nuw %struct.lv_area_t, ptr %87, i32 0, i32 0
  %89 = load i32, ptr %88, align 8, !tbaa !39
  %90 = getelementptr inbounds nuw %struct.lv_area_t, ptr %9, i32 0, i32 2
  %91 = load i32, ptr %90, align 4, !tbaa !33
  %92 = add nsw i32 %91, %89
  store i32 %92, ptr %90, align 4, !tbaa !33
  %93 = load ptr, ptr %3, align 8, !tbaa !8
  %94 = getelementptr inbounds nuw %struct._lv_obj_t, ptr %93, i32 0, i32 5
  %95 = getelementptr inbounds nuw %struct.lv_area_t, ptr %94, i32 0, i32 1
  %96 = load i32, ptr %95, align 4, !tbaa !40
  %97 = getelementptr inbounds nuw %struct.lv_area_t, ptr %9, i32 0, i32 3
  %98 = load i32, ptr %97, align 4, !tbaa !34
  %99 = add nsw i32 %98, %96
  store i32 %99, ptr %97, align 4, !tbaa !34
  %100 = load ptr, ptr %3, align 8, !tbaa !8
  call void @lv_obj_invalidate_area(ptr noundef %100, ptr noundef %9)
  %101 = load i32, ptr %4, align 4, !tbaa !28
  %102 = load ptr, ptr %5, align 8, !tbaa !10
  %103 = getelementptr inbounds nuw %struct._lv_image_t, ptr %102, i32 0, i32 6
  store i32 %101, ptr %103, align 8, !tbaa !23
  call void @llvm.lifetime.start.p0(i64 8, ptr %11) #5
  %104 = load ptr, ptr %3, align 8, !tbaa !8
  %105 = call ptr @lv_obj_get_display(ptr noundef %104)
  store ptr %105, ptr %11, align 8, !tbaa !58
  %106 = load ptr, ptr %11, align 8, !tbaa !58
  call void @lv_display_enable_invalidation(ptr noundef %106, i1 noundef zeroext false)
  %107 = load ptr, ptr %3, align 8, !tbaa !8
  call void @lv_obj_refresh_ext_draw_size(ptr noundef %107)
  %108 = load ptr, ptr %11, align 8, !tbaa !58
  call void @lv_display_enable_invalidation(ptr noundef %108, i1 noundef zeroext true)
  %109 = load i32, ptr %7, align 4, !tbaa !28
  %110 = load i32, ptr %8, align 4, !tbaa !28
  %111 = load ptr, ptr %5, align 8, !tbaa !10
  %112 = getelementptr inbounds nuw %struct._lv_image_t, ptr %111, i32 0, i32 6
  %113 = load i32, ptr %112, align 8, !tbaa !23
  %114 = load ptr, ptr %5, align 8, !tbaa !10
  %115 = getelementptr inbounds nuw %struct._lv_image_t, ptr %114, i32 0, i32 7
  %116 = load i32, ptr %115, align 4, !tbaa !24
  %117 = trunc i32 %116 to i16
  %118 = load ptr, ptr %5, align 8, !tbaa !10
  %119 = getelementptr inbounds nuw %struct._lv_image_t, ptr %118, i32 0, i32 8
  %120 = load i32, ptr %119, align 8, !tbaa !25
  %121 = trunc i32 %120 to i16
  call void @lv_image_buf_get_transformed_area(ptr noundef %9, i32 noundef %109, i32 noundef %110, i32 noundef %113, i16 noundef zeroext %117, i16 noundef zeroext %121, ptr noundef %10)
  %122 = load ptr, ptr %3, align 8, !tbaa !8
  %123 = getelementptr inbounds nuw %struct._lv_obj_t, ptr %122, i32 0, i32 5
  %124 = getelementptr inbounds nuw %struct.lv_area_t, ptr %123, i32 0, i32 0
  %125 = load i32, ptr %124, align 8, !tbaa !39
  %126 = getelementptr inbounds nuw %struct.lv_area_t, ptr %9, i32 0, i32 0
  %127 = load i32, ptr %126, align 4, !tbaa !31
  %128 = add nsw i32 %127, %125
  store i32 %128, ptr %126, align 4, !tbaa !31
  %129 = load ptr, ptr %3, align 8, !tbaa !8
  %130 = getelementptr inbounds nuw %struct._lv_obj_t, ptr %129, i32 0, i32 5
  %131 = getelementptr inbounds nuw %struct.lv_area_t, ptr %130, i32 0, i32 1
  %132 = load i32, ptr %131, align 4, !tbaa !40
  %133 = getelementptr inbounds nuw %struct.lv_area_t, ptr %9, i32 0, i32 1
  %134 = load i32, ptr %133, align 4, !tbaa !32
  %135 = add nsw i32 %134, %132
  store i32 %135, ptr %133, align 4, !tbaa !32
  %136 = load ptr, ptr %3, align 8, !tbaa !8
  %137 = getelementptr inbounds nuw %struct._lv_obj_t, ptr %136, i32 0, i32 5
  %138 = getelementptr inbounds nuw %struct.lv_area_t, ptr %137, i32 0, i32 0
  %139 = load i32, ptr %138, align 8, !tbaa !39
  %140 = getelementptr inbounds nuw %struct.lv_area_t, ptr %9, i32 0, i32 2
  %141 = load i32, ptr %140, align 4, !tbaa !33
  %142 = add nsw i32 %141, %139
  store i32 %142, ptr %140, align 4, !tbaa !33
  %143 = load ptr, ptr %3, align 8, !tbaa !8
  %144 = getelementptr inbounds nuw %struct._lv_obj_t, ptr %143, i32 0, i32 5
  %145 = getelementptr inbounds nuw %struct.lv_area_t, ptr %144, i32 0, i32 1
  %146 = load i32, ptr %145, align 4, !tbaa !40
  %147 = getelementptr inbounds nuw %struct.lv_area_t, ptr %9, i32 0, i32 3
  %148 = load i32, ptr %147, align 4, !tbaa !34
  %149 = add nsw i32 %148, %146
  store i32 %149, ptr %147, align 4, !tbaa !34
  %150 = load ptr, ptr %3, align 8, !tbaa !8
  call void @lv_obj_invalidate_area(ptr noundef %150, ptr noundef %9)
  call void @llvm.lifetime.end.p0(i64 8, ptr %11) #5
  call void @llvm.lifetime.end.p0(i64 8, ptr %10) #5
  call void @llvm.lifetime.end.p0(i64 16, ptr %9) #5
  call void @llvm.lifetime.end.p0(i64 4, ptr %8) #5
  call void @llvm.lifetime.end.p0(i64 4, ptr %7) #5
  store i32 0, ptr %6, align 4
  br label %151

151:                                              ; preds = %52, %51
  call void @llvm.lifetime.end.p0(i64 8, ptr %5) #5
  %152 = load i32, ptr %6, align 4
  switch i32 %152, label %154 [
    i32 0, label %153
    i32 1, label %153
  ]

153:                                              ; preds = %151, %151
  ret void

154:                                              ; preds = %151
  unreachable
}