; Function Attrs: nounwind uwtable
define void @lv_image_set_rotation(ptr noundef %0, i32 noundef %1) local_unnamed_addr #0 {
  %3 = alloca %struct.lv_area_t, align 4
  %4 = alloca %struct.lv_point_t, align 4
  %.not = icmp eq ptr %0, null
  br i1 %.not, label %.preheader, label %5

.preheader:                                       ; preds = %2, %.preheader
  br label %.preheader

5:                                                ; preds = %2
  %6 = getelementptr inbounds nuw i8, ptr %0, i64 116
  %7 = load i16, ptr %6, align 4
  %8 = and i16 %7, 3840
  %9 = icmp samesign ugt i16 %8, 2560
  br i1 %9, label %.loopexit, label %.preheader40.preheader

.preheader40.preheader:                           ; preds = %5
  %10 = tail call i32 @llvm.smax.i32(i32 %1, i32 3599)
  %11 = urem i32 %10, 3600
  %12 = sub nuw nsw i32 %10, %11
  %13 = sub i32 %1, %12
  %smax = tail call i32 @llvm.smax.i32(i32 %13, i32 0)
  %14 = add nuw i32 %smax, %12
  %15 = icmp ne i32 %14, %1
  %umin = zext i1 %15 to i32
  %16 = add i32 %1, %umin
  %17 = sub i32 %14, %16
  %18 = udiv i32 %17, 3600
  %19 = add nuw nsw i32 %18, %umin
  %20 = mul i32 %19, 3600
  %21 = add i32 %1, %20
  %22 = sub i32 %21, %12
  br label %.loopexit

.loopexit:                                        ; preds = %.preheader40.preheader, %5
  %.0 = phi i32 [ 0, %5 ], [ %22, %.preheader40.preheader ]
  %23 = getelementptr inbounds nuw i8, ptr %0, i64 96
  %24 = load i32, ptr %23, align 8, !tbaa !19
  %25 = icmp eq i32 %.0, %24
  br i1 %25, label %77, label %lv_image_get_pivot.exit

lv_image_get_pivot.exit:                          ; preds = %.loopexit
  tail call void @lv_obj_update_layout(ptr noundef nonnull %0) #6
  %26 = tail call i32 @lv_obj_get_width(ptr noundef nonnull %0) #6
  %27 = tail call i32 @lv_obj_get_height(ptr noundef nonnull %0) #6
  call void @llvm.lifetime.start.p0(i64 16, ptr nonnull %3) #6
  call void @llvm.lifetime.start.p0(i64 8, ptr nonnull %4) #6
  %28 = getelementptr inbounds nuw i8, ptr %0, i64 108
  %29 = load i32, ptr %28, align 4, !tbaa !22
  %30 = getelementptr inbounds nuw i8, ptr %0, i64 88
  %31 = load i32, ptr %30, align 8, !tbaa !17
  %32 = tail call i32 @lv_pct_to_px(i32 noundef %29, i32 noundef %31) #6
  store i32 %32, ptr %4, align 4, !tbaa !23
  %33 = getelementptr inbounds nuw i8, ptr %0, i64 112
  %34 = load i32, ptr %33, align 4, !tbaa !24
  %35 = getelementptr inbounds nuw i8, ptr %0, i64 92
  %36 = load i32, ptr %35, align 4, !tbaa !18
  %37 = tail call i32 @lv_pct_to_px(i32 noundef %34, i32 noundef %36) #6
  %38 = getelementptr inbounds nuw i8, ptr %4, i64 4
  store i32 %37, ptr %38, align 4, !tbaa !25
  %39 = load i32, ptr %23, align 8, !tbaa !19
  %40 = getelementptr inbounds nuw i8, ptr %0, i64 100
  %41 = load i32, ptr %40, align 4, !tbaa !20
  %42 = trunc i32 %41 to i16
  %43 = getelementptr inbounds nuw i8, ptr %0, i64 104
  %44 = load i32, ptr %43, align 8, !tbaa !21
  %45 = trunc i32 %44 to i16
  call void @lv_image_buf_get_transformed_area(ptr noundef nonnull %3, i32 noundef %26, i32 noundef %27, i32 noundef %39, i16 noundef zeroext %42, i16 noundef zeroext %45, ptr noundef nonnull %4) #6
  %46 = getelementptr inbounds nuw i8, ptr %0, i64 40
  %47 = load i32, ptr %46, align 8, !tbaa !31
  %48 = load i32, ptr %3, align 4, !tbaa !27
  %49 = add nsw i32 %48, %47
  store i32 %49, ptr %3, align 4, !tbaa !27
  %50 = getelementptr inbounds nuw i8, ptr %0, i64 44
  %51 = load i32, ptr %50, align 4, !tbaa !32
  %52 = getelementptr inbounds nuw i8, ptr %3, i64 4
  %53 = load i32, ptr %52, align 4, !tbaa !28
  %54 = add nsw i32 %53, %51
  store i32 %54, ptr %52, align 4, !tbaa !28
  %55 = getelementptr inbounds nuw i8, ptr %3, i64 8
  %56 = load i32, ptr %55, align 4, !tbaa !29
  %57 = add nsw i32 %56, %47
  store i32 %57, ptr %55, align 4, !tbaa !29
  %58 = getelementptr inbounds nuw i8, ptr %3, i64 12
  %59 = load i32, ptr %58, align 4, !tbaa !30
  %60 = add nsw i32 %59, %51
  store i32 %60, ptr %58, align 4, !tbaa !30
  call void @lv_obj_invalidate_area(ptr noundef nonnull %0, ptr noundef nonnull %3) #6
  store i32 %.0, ptr %23, align 8, !tbaa !19
  %61 = call ptr @lv_obj_get_display(ptr noundef nonnull %0) #6
  call void @lv_display_enable_invalidation(ptr noundef %61, i1 noundef zeroext false) #6
  call void @lv_obj_refresh_ext_draw_size(ptr noundef nonnull %0) #6
  call void @lv_display_enable_invalidation(ptr noundef %61, i1 noundef zeroext true) #6
  %62 = load i32, ptr %23, align 8, !tbaa !19
  %63 = load i32, ptr %40, align 4, !tbaa !20
  %64 = trunc i32 %63 to i16
  %65 = load i32, ptr %43, align 8, !tbaa !21
  %66 = trunc i32 %65 to i16
  call void @lv_image_buf_get_transformed_area(ptr noundef nonnull %3, i32 noundef %26, i32 noundef %27, i32 noundef %62, i16 noundef zeroext %64, i16 noundef zeroext %66, ptr noundef nonnull %4) #6
  %67 = load i32, ptr %46, align 8, !tbaa !31
  %68 = load i32, ptr %3, align 4, !tbaa !27
  %69 = add nsw i32 %68, %67
  store i32 %69, ptr %3, align 4, !tbaa !27
  %70 = load i32, ptr %50, align 4, !tbaa !32
  %71 = load i32, ptr %52, align 4, !tbaa !28
  %72 = add nsw i32 %71, %70
  store i32 %72, ptr %52, align 4, !tbaa !28
  %73 = load i32, ptr %55, align 4, !tbaa !29
  %74 = add nsw i32 %73, %67
  store i32 %74, ptr %55, align 4, !tbaa !29
  %75 = load i32, ptr %58, align 4, !tbaa !30
  %76 = add nsw i32 %75, %70
  store i32 %76, ptr %58, align 4, !tbaa !30
  call void @lv_obj_invalidate_area(ptr noundef nonnull %0, ptr noundef nonnull %3) #6
  call void @llvm.lifetime.end.p0(i64 8, ptr nonnull %4) #6
  call void @llvm.lifetime.end.p0(i64 16, ptr nonnull %3) #6
  br label %77

77:                                               ; preds = %.loopexit, %lv_image_get_pivot.exit
  ret void
}